Certificate:
    Data:
        Version: 3 (0x2)
        Serial Number: 11 (0xb)
    Signature Algorithm: sha1WithRSAEncryption
        Issuer: DC=org, DC=mplane, OU=Root-CA, CN=Root-CA-1
        Validity
            Not Before: Jan 20 15:05:14 2015 GMT
            Not After : Jan 19 15:05:14 2017 GMT
        Subject: DC=org, DC=mplane, O=Test, OU=Components, CN=Component-1
        Subject Public Key Info:
            Public Key Algorithm: rsaEncryption
                Public-Key: (1024 bit)
                Modulus:
                    00:d2:47:8a:72:ed:fd:6a:c0:67:1f:21:93:9e:df:
                    67:85:f4:d7:07:28:6d:c3:3b:90:85:dd:02:a9:74:
                    0f:42:27:61:db:f0:18:75:5f:1d:2a:e1:a5:51:23:
                    91:c9:ed:0c:cf:f7:dc:91:30:84:e5:c1:8d:63:16:
                    1b:68:3b:ba:81:20:b5:f3:6e:f9:c9:20:4f:94:14:
                    3e:20:67:27:1c:b3:fa:75:23:50:4b:cc:bb:e9:2b:
                    ea:8f:d8:e1:d1:71:93:f9:8d:e2:f3:f8:3b:1c:ec:
                    db:b4:99:95:a7:2f:b1:1f:a2:32:14:de:d1:fb:83:
                    6e:f4:ef:70:a8:ef:f4:5b:79
                Exponent: 65537 (0x10001)
        X509v3 extensions:
            X509v3 Key Usage: critical
                Digital Signature, Key Encipherment
            X509v3 Basic Constraints: 
                CA:FALSE
            X509v3 Extended Key Usage: 
                E-mail Protection, TLS Web Client Authentication
            X509v3 Subject Key Identifier: 
                6D:E6:94:7A:78:E6:A8:ED:A6:94:60:94:C0:FF:86:E8:76:B9:C6:58
            X509v3 Authority Key Identifier: 
                keyid:5B:74:DB:A9:23:6B:AF:29:24:ED:21:13:BE:34:DB:94:CB:24:62:F0

            X509v3 Subject Alternative Name: 
                DNS:Component-1.Test.mplane.org
    Signature Algorithm: sha1WithRSAEncryption
         69:3c:0d:3b:1e:f6:b2:f0:b9:60:8c:70:a4:24:e4:12:f8:24:
         45:63:03:fe:ec:92:6c:06:99:9b:af:25:e7:1f:1a:68:00:fd:
         66:f0:67:0a:38:c7:2c:92:0d:16:cd:92:df:bb:0f:df:ed:8e:
         80:92:f5:bc:1c:a8:66:b5:37:12:9b:2b:d6:9e:b5:ed:d4:18:
         51:f6:c0:96:8e:83:78:32:81:ce:60:b6:9d:69:ac:e7:71:7b:
         ac:ef:8b:e8:b9:2c:d6:6c:a8:7e:98:53:0a:c3:92:bb:fd:1e:
         63:33:2d:34:03:49:4f:45:fa:4a:61:e3:8c:00:56:c2:0a:01:
         c5:b5:08:32:a3:a9:28:0e:73:da:f0:3a:ab:1e:b6:92:7e:1f:
         12:73:b6:e7:73:c9:a3:b2:cb:df:0a:eb:60:7d:f7:bd:d1:66:
         8b:97:55:d3:a6:2d:f5:42:22:e1:75:83:e6:1b:2d:eb:64:3a:
         67:71:d6:66:0e:de:48:a4:8d:71:40:49:cc:e2:1a:66:5f:15:
         a7:dc:b6:93:49:68:ac:8e:73:c7:68:c4:85:5c:f4:40:96:16:
         ac:1c:e6:fe:86:6e:20:c3:8a:e9:c9:ed:b8:0e:95:0a:9b:f1:
         20:73:96:39:a6:67:0d:22:b4:84:38:3c:b4:cb:21:94:c9:87:
         29:e6:09:8b:fc:0b:c2:3e:6f:dc:d2:15:de:e0:81:57:7c:47:
         c2:c6:88:69:25:b9:3a:20:0e:ce:16:b4:b1:fb:93:43:9c:41:
         68:3d:ab:a8:03:b8:2a:a1:f9:49:5a:f8:bf:10:30:20:3b:ca:
         fc:1c:84:75:f8:80:dd:9c:a8:9d:9d:91:13:01:81:d9:ac:57:
         e0:50:c5:6c:d0:a3:68:5a:5d:54:00:66:f8:e4:82:fb:d3:6c:
         8b:28:e3:f5:0b:7b:8e:b2:d6:97:5b:e3:58:35:62:f2:e1:8d:
         87:92:2f:f8:3a:71:0f:94:30:f2:d8:36:e1:33:ea:73:3a:dc:
         b7:00:ed:c8:e1:52:37:4e:da:73:8b:d7:c2:16:18:eb:65:4e:
         1e:be:7e:9a:15:f2:68:12:f7:59:5d:cb:36:14:32:5e:87:43:
         ee:36:d3:da:ea:7b:26:1b:15:c6:67:53:9c:52:6e:c5:70:b6:
         a4:10:62:85:ad:b7:d6:88:78:cf:24:32:6d:93:71:59:01:f9:
         12:22:4f:68:57:59:16:c2:e3:7e:fb:22:c0:31:8a:e2:db:a0:
         dc:37:15:63:5e:72:e1:e3:db:da:49:37:6d:b5:20:98:11:cd:
         2f:4c:ec:6f:77:92:fc:cc:0c:9d:ae:0f:4f:de:ea:57:f3:63:
         6c:46:5b:fc:d8:2e:2d:11
-----BEGIN CERTIFICATE-----
MIIEVzCCAj+gAwIBAgIBCzANBgkqhkiG9w0BAQUFADBTMRMwEQYKCZImiZPyLGQB
GRYDb3JnMRYwFAYKCZImiZPyLGQBGRYGbXBsYW5lMRAwDgYDVQQLDAdSb290LUNB
MRIwEAYDVQQDDAlSb290LUNBLTEwHhcNMTUwMTIwMTUwNTE0WhcNMTcwMTE5MTUw
NTE0WjBnMRMwEQYKCZImiZPyLGQBGRYDb3JnMRYwFAYKCZImiZPyLGQBGRYGbXBs
YW5lMQ0wCwYDVQQKDARUZXN0MRMwEQYDVQQLDApDb21wb25lbnRzMRQwEgYDVQQD
DAtDb21wb25lbnQtMTCBnzANBgkqhkiG9w0BAQEFAAOBjQAwgYkCgYEA0keKcu39
asBnHyGTnt9nhfTXByhtwzuQhd0CqXQPQidh2/AYdV8dKuGlUSORye0Mz/fckTCE
5cGNYxYbaDu6gSC18275ySBPlBQ+IGcnHLP6dSNQS8y76Svqj9jh0XGT+Y3i8/g7
HOzbtJmVpy+xH6IyFN7R+4Nu9O9wqO/0W3kCAwEAAaOBpTCBojAOBgNVHQ8BAf8E
BAMCBaAwCQYDVR0TBAIwADAdBgNVHSUEFjAUBggrBgEFBQcDBAYIKwYBBQUHAwIw
HQYDVR0OBBYEFG3mlHp45qjtppRglMD/huh2ucZYMB8GA1UdIwQYMBaAFFt026kj
a68pJO0hE74025TLJGLwMCYGA1UdEQQfMB2CG0NvbXBvbmVudC0xLlRlc3QubXBs
YW5lLm9yZzANBgkqhkiG9w0BAQUFAAOCAgEAaTwNOx72svC5YIxwpCTkEvgkRWMD
/uySbAaZm68l5x8aaAD9ZvBnCjjHLJINFs2S37sP3+2OgJL1vByoZrU3Epsr1p61
7dQYUfbAlo6DeDKBzmC2nWms53F7rO+L6Lks1myofphTCsOSu/0eYzMtNANJT0X6
SmHjjABWwgoBxbUIMqOpKA5z2vA6qx62kn4fEnO253PJo7LL3wrrYH33vdFmi5dV
06Yt9UIi4XWD5hst62Q6Z3HWZg7eSKSNcUBJzOIaZl8Vp9y2k0lorI5zx2jEhVz0
QJYWrBzm/oZuIMOK6cntuA6VCpvxIHOWOaZnDSK0hDg8tMshlMmHKeYJi/wLwj5v
3NIV3uCBV3xHwsaIaSW5OiAOzha0sfuTQ5xBaD2rqAO4KqH5SVr4vxAwIDvK/ByE
dfiA3ZyonZ2REwGB2axX4FDFbNCjaFpdVABm+OSC+9Nsiyjj9Qt7jrLWl1vjWDVi
8uGNh5Iv+DpxD5Qw8tg24TPqczrctwDtyOFSN07ac4vXwhYY62VOHr5+mhXyaBL3
WV3LNhQyXodD7jbT2up7JhsVxmdTnFJuxXC2pBBiha231oh4zyQybZNxWQH5EiJP
aFdZFsLjfvsiwDGK4tug3DcVY15y4ePb2kk3bbUgmBHNL0zsb3eS/MwMna4PT97q
V/NjbEZb/NguLRE=
-----END CERTIFICATE-----
