Certificate:
    Data:
        Version: 3 (0x2)
        Serial Number: 12 (0xc)
    Signature Algorithm: sha1WithRSAEncryption
        Issuer: DC=org, DC=mplane, OU=Root-CA, CN=Root-CA-1
        Validity
            Not Before: Jan 21 11:18:56 2015 GMT
            Not After : Jan 20 11:18:56 2017 GMT
        Subject: DC=org, DC=mplane, O=Test, OU=Clients, CN=Client-1
        Subject Public Key Info:
            Public Key Algorithm: rsaEncryption
                Public-Key: (1024 bit)
                Modulus:
                    00:ce:ba:c9:4d:68:03:5c:e0:58:3d:bc:5c:b2:aa:
                    33:94:a9:66:77:50:27:30:f0:8d:35:de:ad:57:51:
                    28:7d:9d:02:de:64:d0:32:fb:af:bc:48:bf:d2:9e:
                    b2:fa:41:e7:e3:da:6d:1b:6c:f1:f8:c2:6d:dd:b1:
                    73:e8:a2:0f:fc:6c:20:75:71:09:c3:5a:a0:9a:01:
                    b6:cb:34:70:07:b3:44:c6:61:f5:4b:9a:21:24:73:
                    a2:50:66:99:84:74:28:a9:7a:90:3d:66:c9:cc:a9:
                    51:b5:76:1b:a9:b9:fb:e7:ee:b1:4a:cb:92:7e:66:
                    65:cc:53:4b:0d:31:ed:a9:7b
                Exponent: 65537 (0x10001)
        X509v3 extensions:
            X509v3 Key Usage: critical
                Digital Signature, Key Encipherment
            X509v3 Basic Constraints: 
                CA:FALSE
            X509v3 Extended Key Usage: 
                E-mail Protection, TLS Web Client Authentication
            X509v3 Subject Key Identifier: 
                BB:8C:B2:D1:60:62:B6:F7:3C:C7:F0:18:9C:E7:3C:60:87:BE:92:26
            X509v3 Authority Key Identifier: 
                keyid:5B:74:DB:A9:23:6B:AF:29:24:ED:21:13:BE:34:DB:94:CB:24:62:F0

            X509v3 Subject Alternative Name: 
                DNS:Client-1.Test.mplane.org
    Signature Algorithm: sha1WithRSAEncryption
         04:fe:d5:b0:a4:dc:21:5e:5b:fa:9a:07:6d:ce:1d:07:97:dd:
         c2:0a:b3:1a:f1:4d:24:2c:2b:21:16:67:07:4c:69:ff:b9:66:
         d5:41:b9:69:73:ad:6d:39:72:f8:48:ea:8c:3b:de:29:82:12:
         94:9b:78:f9:78:db:35:d0:38:f8:10:75:0e:60:30:a2:82:30:
         ed:fd:ea:fa:8e:14:e6:a3:98:79:ea:4c:31:5e:4a:3f:82:d6:
         be:1a:a7:6c:3f:2e:ba:b0:32:dd:75:36:0e:6d:96:64:45:42:
         06:c1:95:f3:31:aa:95:8c:8a:d4:71:ad:52:d9:3c:f2:7b:53:
         84:18:f2:89:63:95:f0:93:ca:3e:81:bd:66:60:d8:fe:72:21:
         9a:0e:c4:db:c2:07:1f:48:83:50:82:19:a5:7e:19:fc:47:ac:
         7f:41:22:a9:a7:22:53:a8:27:17:94:ca:e8:02:c2:6e:1d:1f:
         be:19:a7:d8:38:fe:4a:05:fb:a8:98:b1:20:75:10:fe:3b:73:
         98:b1:5d:05:bf:8e:61:24:5c:bd:1e:ec:c6:ad:ab:52:03:de:
         2b:42:79:c4:25:5c:a8:2d:c5:9d:d4:94:12:14:77:5b:4d:a7:
         8a:13:bd:de:93:32:b9:49:ce:4b:31:48:b2:06:29:c5:d4:04:
         19:27:ad:fc:c5:1d:ea:d6:76:bf:fa:d0:be:d6:04:50:52:1a:
         c9:9e:5e:ad:51:d7:1c:a0:3e:6e:76:3a:98:ae:f4:85:9d:38:
         ef:25:3b:ce:4e:4e:08:ab:fd:67:6d:b1:0e:08:e4:7d:83:a0:
         6a:c7:ce:9e:49:65:b5:f6:cf:6e:71:88:e7:dd:96:63:64:51:
         9a:88:a6:a7:3e:7e:ff:79:e2:d4:a5:c0:16:77:d1:9c:b1:c9:
         b9:d7:8f:ef:48:c9:b7:c4:72:d5:68:3d:78:bf:a5:da:dd:87:
         96:c1:e5:08:42:e9:ec:ab:c4:3f:36:f5:e0:1a:c4:d6:63:0c:
         87:23:0a:78:89:9e:77:ce:fd:4c:0b:94:6c:01:a5:0e:ae:94:
         14:bc:d0:45:2d:f1:cf:3b:97:56:4b:21:1f:a7:2c:c0:59:12:
         20:ba:69:6f:01:06:8c:6e:9a:48:8e:dd:12:32:f8:10:ce:44:
         d7:b7:59:51:0b:22:69:e7:ee:2a:a8:30:d5:8e:7e:59:01:fb:
         d6:31:c1:35:e2:66:54:be:1f:2d:e4:aa:28:8d:57:8f:d9:fb:
         70:d9:73:2c:a3:e3:ce:49:c7:01:22:ae:80:88:76:45:f1:01:
         34:80:9c:67:94:4d:6c:6c:b0:ea:0d:a3:23:70:2c:de:00:51:
         13:00:3b:cc:d4:ec:7f:69
-----BEGIN CERTIFICATE-----
MIIETjCCAjagAwIBAgIBDDANBgkqhkiG9w0BAQUFADBTMRMwEQYKCZImiZPyLGQB
GRYDb3JnMRYwFAYKCZImiZPyLGQBGRYGbXBsYW5lMRAwDgYDVQQLDAdSb290LUNB
MRIwEAYDVQQDDAlSb290LUNBLTEwHhcNMTUwMTIxMTExODU2WhcNMTcwMTIwMTEx
ODU2WjBhMRMwEQYKCZImiZPyLGQBGRYDb3JnMRYwFAYKCZImiZPyLGQBGRYGbXBs
YW5lMQ0wCwYDVQQKDARUZXN0MRAwDgYDVQQLDAdDbGllbnRzMREwDwYDVQQDDAhD
bGllbnQtMTCBnzANBgkqhkiG9w0BAQEFAAOBjQAwgYkCgYEAzrrJTWgDXOBYPbxc
sqozlKlmd1AnMPCNNd6tV1EofZ0C3mTQMvuvvEi/0p6y+kHn49ptG2zx+MJt3bFz
6KIP/GwgdXEJw1qgmgG2yzRwB7NExmH1S5ohJHOiUGaZhHQoqXqQPWbJzKlRtXYb
qbn75+6xSsuSfmZlzFNLDTHtqXsCAwEAAaOBojCBnzAOBgNVHQ8BAf8EBAMCBaAw
CQYDVR0TBAIwADAdBgNVHSUEFjAUBggrBgEFBQcDBAYIKwYBBQUHAwIwHQYDVR0O
BBYEFLuMstFgYrb3PMfwGJznPGCHvpImMB8GA1UdIwQYMBaAFFt026kja68pJO0h
E74025TLJGLwMCMGA1UdEQQcMBqCGENsaWVudC0xLlRlc3QubXBsYW5lLm9yZzAN
BgkqhkiG9w0BAQUFAAOCAgEABP7VsKTcIV5b+poHbc4dB5fdwgqzGvFNJCwrIRZn
B0xp/7lm1UG5aXOtbTly+EjqjDveKYISlJt4+XjbNdA4+BB1DmAwooIw7f3q+o4U
5qOYeepMMV5KP4LWvhqnbD8uurAy3XU2Dm2WZEVCBsGV8zGqlYyK1HGtUtk88ntT
hBjyiWOV8JPKPoG9ZmDY/nIhmg7E28IHH0iDUIIZpX4Z/Eesf0EiqaciU6gnF5TK
6ALCbh0fvhmn2Dj+SgX7qJixIHUQ/jtzmLFdBb+OYSRcvR7sxq2rUgPeK0J5xCVc
qC3FndSUEhR3W02nihO93pMyuUnOSzFIsgYpxdQEGSet/MUd6tZ2v/rQvtYEUFIa
yZ5erVHXHKA+bnY6mK70hZ047yU7zk5OCKv9Z22xDgjkfYOgasfOnklltfbPbnGI
592WY2RRmoimpz5+/3ni1KXAFnfRnLHJudeP70jJt8Ry1Wg9eL+l2t2HlsHlCELp
7KvEPzb14BrE1mMMhyMKeImed879TAuUbAGlDq6UFLzQRS3xzzuXVkshH6cswFkS
ILppbwEGjG6aSI7dEjL4EM5E17dZUQsiaefuKqgw1Y5+WQH71jHBNeJmVL4fLeSq
KI1Xj9n7cNlzLKPjzknHASKugIh2RfEBNICcZ5RNbGyw6g2jI3As3gBREwA7zNTs
f2k=
-----END CERTIFICATE-----
