Certificate:
    Data:
        Version: 3 (0x2)
        Serial Number: 13 (0xd)
    Signature Algorithm: sha1WithRSAEncryption
        Issuer: DC=org, DC=mplane, OU=Root-CA, CN=Root-CA-1
        Validity
            Not Before: Jan 21 11:24:56 2015 GMT
            Not After : Jan 20 11:24:56 2017 GMT
        Subject: DC=org, DC=mplane, O=Test, OU=Components, CN=Components-1
        Subject Public Key Info:
            Public Key Algorithm: rsaEncryption
                Public-Key: (1024 bit)
                Modulus:
                    00:c5:d7:9f:85:5f:89:8f:6a:a1:52:20:c2:f5:3f:
                    c5:5d:85:4a:02:1a:12:cf:47:44:1e:ff:a5:17:26:
                    7b:86:88:7b:cf:20:a6:90:6a:f2:b5:36:60:9d:64:
                    8a:5a:e9:a8:8f:0d:18:90:42:d9:19:7b:5e:45:3e:
                    1c:9e:25:e2:87:50:83:8d:89:5f:77:3d:3a:d5:db:
                    bd:27:34:9d:f3:e8:c0:5c:b7:5d:c5:d0:4d:b9:db:
                    bb:a7:ce:de:ee:0d:ef:e1:87:92:b7:3f:19:84:18:
                    ab:ca:09:72:1c:65:fc:87:54:49:d3:16:81:07:b7:
                    48:2e:c7:8a:8f:ab:01:61:21
                Exponent: 65537 (0x10001)
        X509v3 extensions:
            X509v3 Key Usage: critical
                Digital Signature, Key Encipherment
            X509v3 Basic Constraints: 
                CA:FALSE
            X509v3 Extended Key Usage: 
                E-mail Protection, TLS Web Client Authentication
            X509v3 Subject Key Identifier: 
                F0:A3:EF:A7:AF:C7:C8:1D:A7:FC:A0:9E:FF:84:99:4F:70:80:55:E9
            X509v3 Authority Key Identifier: 
                keyid:5B:74:DB:A9:23:6B:AF:29:24:ED:21:13:BE:34:DB:94:CB:24:62:F0

            X509v3 Subject Alternative Name: 
                DNS:Component-1.Test.mplane.org
    Signature Algorithm: sha1WithRSAEncryption
         af:04:27:cb:d8:7f:b4:c4:d1:16:33:c5:3c:0b:5c:e9:85:64:
         22:c4:4a:25:e6:73:37:0a:ca:cd:b6:5c:86:aa:d6:e8:b4:40:
         8e:93:81:13:f4:62:8b:66:48:4c:80:a7:a4:e1:64:68:11:80:
         ed:58:d8:dd:a1:0e:5a:5e:73:e0:26:62:ef:7c:5c:33:09:4a:
         91:31:e4:cc:21:b2:d6:37:4f:ed:4a:1d:6b:bf:ea:85:ff:a1:
         f6:db:85:93:e0:54:2d:11:3f:36:c3:15:c4:5b:32:f2:a6:e1:
         4d:d3:44:c5:9c:38:96:69:21:18:dd:75:7b:75:f5:a4:83:03:
         fa:cd:a0:a9:ce:c3:c8:73:1e:1d:34:28:3c:43:d5:79:fe:a1:
         54:30:05:fd:a6:ef:b3:39:6e:c7:d9:1e:b3:3f:9f:b1:29:82:
         8c:68:8e:65:98:08:f3:3a:65:ec:5a:cd:17:03:68:b2:90:33:
         f8:7c:8d:00:39:54:f4:21:dd:56:bd:7f:bb:92:b1:e5:35:06:
         25:65:87:df:32:30:c7:18:1c:23:be:1f:d8:3e:56:2e:8c:d3:
         9e:9b:e0:d5:3c:79:15:b8:86:87:ec:d4:dd:37:ed:d5:e9:34:
         84:ca:1c:23:43:6e:39:73:98:6b:d1:48:b6:f2:3f:8c:42:b1:
         6a:f3:15:51:f0:15:ff:67:7d:b0:92:84:d7:5b:2f:1a:29:a6:
         bd:fb:2f:df:0e:38:e8:30:1a:d4:19:c1:af:2e:54:bd:b5:3d:
         6e:74:ca:7c:49:66:2d:16:ff:c8:32:85:66:7a:47:7b:4b:9e:
         5f:55:84:77:18:6d:84:92:41:1c:fc:b3:94:d4:47:7f:f9:95:
         65:67:1b:b8:15:8f:01:3a:6a:e3:c4:1f:be:77:4a:78:32:29:
         55:44:ec:22:f7:23:61:31:a5:a9:9f:25:30:d1:c3:b5:66:4e:
         a7:d3:05:b8:e2:be:82:0a:9f:66:86:5e:9b:f8:b6:71:26:04:
         85:52:47:e2:e6:34:18:1c:0d:92:5a:31:ad:97:a8:fe:b3:ba:
         ff:f9:b0:eb:a4:d1:09:02:99:1b:cf:ab:8d:10:28:6e:a4:6e:
         e9:41:a5:71:61:ae:cf:01:ec:48:a7:8a:78:a3:a4:8f:8e:a3:
         5c:4e:fc:07:38:58:e0:ff:ab:b2:a4:5e:ae:45:8b:40:5b:67:
         ba:12:7a:66:3b:42:b9:89:df:35:c9:9f:2a:40:f1:05:ce:40:
         bd:11:bf:ac:14:84:65:83:e6:5e:b1:47:59:aa:cf:bc:b4:94:
         c5:22:c5:3d:f0:02:c5:0a:45:94:6d:7b:55:96:d9:00:85:d8:
         bb:f5:37:4c:91:16:25:e7
-----BEGIN CERTIFICATE-----
MIIEWDCCAkCgAwIBAgIBDTANBgkqhkiG9w0BAQUFADBTMRMwEQYKCZImiZPyLGQB
GRYDb3JnMRYwFAYKCZImiZPyLGQBGRYGbXBsYW5lMRAwDgYDVQQLDAdSb290LUNB
MRIwEAYDVQQDDAlSb290LUNBLTEwHhcNMTUwMTIxMTEyNDU2WhcNMTcwMTIwMTEy
NDU2WjBoMRMwEQYKCZImiZPyLGQBGRYDb3JnMRYwFAYKCZImiZPyLGQBGRYGbXBs
YW5lMQ0wCwYDVQQKDARUZXN0MRMwEQYDVQQLDApDb21wb25lbnRzMRUwEwYDVQQD
DAxDb21wb25lbnRzLTEwgZ8wDQYJKoZIhvcNAQEBBQADgY0AMIGJAoGBAMXXn4Vf
iY9qoVIgwvU/xV2FSgIaEs9HRB7/pRcme4aIe88gppBq8rU2YJ1kilrpqI8NGJBC
2Rl7XkU+HJ4l4odQg42JX3c9OtXbvSc0nfPowFy3XcXQTbnbu6fO3u4N7+GHkrc/
GYQYq8oJchxl/IdUSdMWgQe3SC7Hio+rAWEhAgMBAAGjgaUwgaIwDgYDVR0PAQH/
BAQDAgWgMAkGA1UdEwQCMAAwHQYDVR0lBBYwFAYIKwYBBQUHAwQGCCsGAQUFBwMC
MB0GA1UdDgQWBBTwo++nr8fIHaf8oJ7/hJlPcIBV6TAfBgNVHSMEGDAWgBRbdNup
I2uvKSTtIRO+NNuUyyRi8DAmBgNVHREEHzAdghtDb21wb25lbnQtMS5UZXN0Lm1w
bGFuZS5vcmcwDQYJKoZIhvcNAQEFBQADggIBAK8EJ8vYf7TE0RYzxTwLXOmFZCLE
SiXmczcKys22XIaq1ui0QI6TgRP0YotmSEyAp6ThZGgRgO1Y2N2hDlpec+AmYu98
XDMJSpEx5MwhstY3T+1KHWu/6oX/ofbbhZPgVC0RPzbDFcRbMvKm4U3TRMWcOJZp
IRjddXt19aSDA/rNoKnOw8hzHh00KDxD1Xn+oVQwBf2m77M5bsfZHrM/n7Epgoxo
jmWYCPM6ZexazRcDaLKQM/h8jQA5VPQh3Va9f7uSseU1BiVlh98yMMcYHCO+H9g+
Vi6M056b4NU8eRW4hofs1N037dXpNITKHCNDbjlzmGvRSLbyP4xCsWrzFVHwFf9n
fbCShNdbLxoppr37L98OOOgwGtQZwa8uVL21PW50ynxJZi0W/8gyhWZ6R3tLnl9V
hHcYbYSSQRz8s5TUR3/5lWVnG7gVjwE6auPEH753SngyKVVE7CL3I2ExpamfJTDR
w7VmTqfTBbjivoIKn2aGXpv4tnEmBIVSR+LmNBgcDZJaMa2XqP6zuv/5sOuk0QkC
mRvPq40QKG6kbulBpXFhrs8B7EininijpI+Oo1xO/Ac4WOD/q7KkXq5Fi0BbZ7oS
emY7QrmJ3zXJnypA8QXOQL0Rv6wUhGWD5l6xR1mqz7y0lMUixT3wAsUKRZRte1WW
2QCF2Lv1N0yRFiXn
-----END CERTIFICATE-----
