Certificate:
    Data:
        Version: 3 (0x2)
        Serial Number: 14 (0xe)
    Signature Algorithm: sha1WithRSAEncryption
        Issuer: DC=org, DC=mplane, OU=Root-CA, CN=Root-CA-1
        Validity
            Not Before: Jan 21 11:32:30 2015 GMT
            Not After : Jan 20 11:32:30 2017 GMT
        Subject: DC=org, DC=mplane, O=Test, OU=Components, CN=Component-1
        Subject Public Key Info:
            Public Key Algorithm: rsaEncryption
                Public-Key: (1024 bit)
                Modulus:
                    00:b2:aa:d7:51:da:d5:86:79:68:8c:21:62:fa:70:
                    9c:78:3b:f7:b6:92:3e:e2:26:21:fa:67:e9:8f:eb:
                    5a:aa:bf:54:49:26:f6:1b:2b:cd:8a:2a:24:7e:41:
                    91:d3:d0:de:69:da:bb:6c:a8:8f:11:15:75:19:f0:
                    d6:d0:76:a0:5a:13:d0:35:6d:b1:6f:da:28:88:ea:
                    48:91:fd:42:c4:10:c7:96:bb:f3:9f:98:ff:50:6b:
                    01:cd:b1:2f:48:22:a1:16:7a:81:30:e4:4a:d6:49:
                    a7:0c:2f:10:dc:a8:f6:60:e9:62:c8:16:13:6c:bb:
                    89:f7:e1:1e:fe:bc:59:81:89
                Exponent: 65537 (0x10001)
        X509v3 extensions:
            X509v3 Key Usage: critical
                Digital Signature, Key Encipherment
            X509v3 Basic Constraints: 
                CA:FALSE
            X509v3 Extended Key Usage: 
                E-mail Protection, TLS Web Client Authentication
            X509v3 Subject Key Identifier: 
                9E:4B:5D:9E:BE:DD:18:F7:FE:12:4E:ED:89:EE:AB:F3:25:D9:47:50
            X509v3 Authority Key Identifier: 
                keyid:5B:74:DB:A9:23:6B:AF:29:24:ED:21:13:BE:34:DB:94:CB:24:62:F0

            X509v3 Subject Alternative Name: 
                DNS:Component-1.Test.mplane.org
    Signature Algorithm: sha1WithRSAEncryption
         0d:dc:24:25:a5:8c:e0:ac:a9:95:e5:13:ed:d2:c4:0e:21:a3:
         7e:50:cb:a5:59:74:44:f8:85:dc:70:13:c2:c0:9a:16:f8:3d:
         63:38:77:91:bf:fc:01:6c:0b:04:10:c8:d1:e6:fb:33:63:28:
         8c:ce:78:fd:dc:58:4c:8a:a3:1d:0b:97:10:71:be:74:ae:0f:
         d1:8a:38:03:f5:ce:88:df:a8:a2:a6:39:a2:0f:92:01:ea:86:
         d6:97:9f:91:62:33:8f:f6:b1:c3:64:c8:69:c6:02:94:d9:37:
         b8:47:2d:1a:54:f9:83:02:4a:a2:26:18:5f:e5:5b:ea:1a:9c:
         a1:42:63:9a:0d:b0:95:c4:72:bb:3c:19:78:0d:11:a7:04:88:
         70:c8:92:5c:48:fc:e2:b1:18:37:40:e5:e4:5f:ca:45:cf:d7:
         b6:a5:ce:57:ef:cd:1f:c1:44:07:e3:d6:70:9a:d6:e1:52:d6:
         ac:dc:b5:00:99:0d:9a:78:76:49:07:fe:c8:53:3d:40:89:31:
         d5:d6:7f:0c:43:04:f2:7a:22:8e:62:6c:df:f6:9f:1e:f3:5e:
         a3:d9:79:a0:97:08:f3:30:cc:aa:f9:3c:45:fe:98:45:5f:80:
         1c:f9:9f:45:cc:1a:95:90:3a:57:0b:2e:bb:72:7c:b2:c2:45:
         40:85:84:51:1a:b9:8d:32:05:12:38:26:88:b1:c6:b1:bf:cd:
         49:a4:3f:ca:7c:85:6b:bf:31:aa:35:48:d6:e2:73:88:cf:0d:
         c1:88:40:9d:0a:3b:3c:a4:18:46:4f:8c:f9:2f:66:28:5c:ec:
         bd:8e:d5:b1:23:32:c8:2a:89:cb:7f:3b:d5:53:b7:48:cb:8d:
         1d:0f:79:81:1e:a1:fd:c0:93:8b:60:23:95:31:7a:cb:c4:a2:
         0b:5a:71:c9:e2:40:0f:89:63:03:3c:a5:ee:b1:fb:a8:5f:e9:
         d2:0c:b8:74:30:64:cd:62:f8:07:9f:58:a1:82:02:08:7f:7d:
         48:b5:67:f8:75:f8:ce:98:7c:d3:7a:d4:1e:94:0f:35:d8:3e:
         e5:1e:d5:3a:67:a0:e7:87:db:86:88:c7:b4:b8:7b:96:29:e7:
         8d:ab:81:54:50:c8:cb:f9:17:55:de:ea:ae:ff:95:52:55:cb:
         1d:1e:e6:7c:6d:e8:92:2e:55:19:bf:91:a6:b4:6d:ed:2f:18:
         ca:da:3a:4c:48:1a:9d:f2:8a:b9:84:ce:17:cf:2f:84:4d:ad:
         74:fd:b7:8e:03:11:10:f8:29:77:12:a1:18:04:68:7b:65:e6:
         fc:50:d0:15:7c:ab:ed:1d:f0:eb:60:ad:43:2b:29:fc:66:48:
         99:cb:48:8f:c1:1b:6a:6a
-----BEGIN CERTIFICATE-----
MIIEVzCCAj+gAwIBAgIBDjANBgkqhkiG9w0BAQUFADBTMRMwEQYKCZImiZPyLGQB
GRYDb3JnMRYwFAYKCZImiZPyLGQBGRYGbXBsYW5lMRAwDgYDVQQLDAdSb290LUNB
MRIwEAYDVQQDDAlSb290LUNBLTEwHhcNMTUwMTIxMTEzMjMwWhcNMTcwMTIwMTEz
MjMwWjBnMRMwEQYKCZImiZPyLGQBGRYDb3JnMRYwFAYKCZImiZPyLGQBGRYGbXBs
YW5lMQ0wCwYDVQQKDARUZXN0MRMwEQYDVQQLDApDb21wb25lbnRzMRQwEgYDVQQD
DAtDb21wb25lbnQtMTCBnzANBgkqhkiG9w0BAQEFAAOBjQAwgYkCgYEAsqrXUdrV
hnlojCFi+nCceDv3tpI+4iYh+mfpj+taqr9USSb2GyvNiiokfkGR09Deadq7bKiP
ERV1GfDW0HagWhPQNW2xb9ooiOpIkf1CxBDHlrvzn5j/UGsBzbEvSCKhFnqBMORK
1kmnDC8Q3Kj2YOliyBYTbLuJ9+Ee/rxZgYkCAwEAAaOBpTCBojAOBgNVHQ8BAf8E
BAMCBaAwCQYDVR0TBAIwADAdBgNVHSUEFjAUBggrBgEFBQcDBAYIKwYBBQUHAwIw
HQYDVR0OBBYEFJ5LXZ6+3Rj3/hJO7Ynuq/Ml2UdQMB8GA1UdIwQYMBaAFFt026kj
a68pJO0hE74025TLJGLwMCYGA1UdEQQfMB2CG0NvbXBvbmVudC0xLlRlc3QubXBs
YW5lLm9yZzANBgkqhkiG9w0BAQUFAAOCAgEADdwkJaWM4KypleUT7dLEDiGjflDL
pVl0RPiF3HATwsCaFvg9Yzh3kb/8AWwLBBDI0eb7M2MojM54/dxYTIqjHQuXEHG+
dK4P0Yo4A/XOiN+ooqY5og+SAeqG1pefkWIzj/axw2TIacYClNk3uEctGlT5gwJK
oiYYX+Vb6hqcoUJjmg2wlcRyuzwZeA0RpwSIcMiSXEj84rEYN0Dl5F/KRc/XtqXO
V+/NH8FEB+PWcJrW4VLWrNy1AJkNmnh2SQf+yFM9QIkx1dZ/DEME8noijmJs3/af
HvNeo9l5oJcI8zDMqvk8Rf6YRV+AHPmfRcwalZA6Vwsuu3J8ssJFQIWEURq5jTIF
EjgmiLHGsb/NSaQ/ynyFa78xqjVI1uJziM8NwYhAnQo7PKQYRk+M+S9mKFzsvY7V
sSMyyCqJy3871VO3SMuNHQ95gR6h/cCTi2AjlTF6y8SiC1pxyeJAD4ljAzyl7rH7
qF/p0gy4dDBkzWL4B59YoYICCH99SLVn+HX4zph803rUHpQPNdg+5R7VOmeg54fb
hojHtLh7linnjauBVFDIy/kXVd7qrv+VUlXLHR7mfG3oki5VGb+RprRt7S8Yyto6
TEganfKKuYTOF88vhE2tdP23jgMREPgpdxKhGARoe2Xm/FDQFXyr7R3w62CtQysp
/GZImctIj8Ebamo=
-----END CERTIFICATE-----
