Certificate:
    Data:
        Version: 3 (0x2)
        Serial Number: 15 (0xf)
    Signature Algorithm: sha1WithRSAEncryption
        Issuer: DC=org, DC=mplane, OU=Root-CA, CN=Root-CA-1
        Validity
            Not Before: Jan 23 15:46:10 2015 GMT
            Not After : Jan 22 15:46:10 2017 GMT
        Subject: DC=org, DC=mplane, O=Test, OU=Clients, CN=Client-1
        Subject Public Key Info:
            Public Key Algorithm: rsaEncryption
                Public-Key: (1024 bit)
                Modulus:
                    00:c4:85:84:78:14:61:67:aa:8d:8f:9d:92:87:21:
                    7a:9b:b2:f4:a7:c1:ed:88:16:91:48:47:55:46:c6:
                    55:42:64:80:95:e6:02:43:eb:b9:ed:53:8c:93:fa:
                    04:43:54:ea:76:ea:cd:98:65:13:e9:14:29:54:4d:
                    38:a7:10:43:89:f5:2f:07:36:a8:38:22:cc:00:3d:
                    d9:39:0e:9f:85:02:7a:7a:7f:65:65:d3:ac:6d:09:
                    cd:49:87:98:c8:3b:97:d7:58:28:f5:68:37:de:a4:
                    83:53:6e:af:1c:e3:fc:90:38:3e:b2:dd:52:f3:6f:
                    79:65:cb:b8:7f:c7:c5:ab:33
                Exponent: 65537 (0x10001)
        X509v3 extensions:
            X509v3 Key Usage: critical
                Digital Signature, Key Encipherment
            X509v3 Basic Constraints: 
                CA:FALSE
            X509v3 Subject Key Identifier: 
                3A:53:83:0C:E5:D4:EB:80:C8:20:01:8D:EF:85:42:88:70:95:7A:7F
            X509v3 Authority Key Identifier: 
                keyid:5B:74:DB:A9:23:6B:AF:29:24:ED:21:13:BE:34:DB:94:CB:24:62:F0

            X509v3 Subject Alternative Name: 
                DNS:Client-1.Test.mplane.org
    Signature Algorithm: sha1WithRSAEncryption
         0c:82:7d:b8:ae:11:3c:cf:61:47:5f:4b:d4:96:1f:f7:bf:4a:
         bc:6a:f9:fc:4c:ff:44:8e:01:4e:a1:44:ee:df:bc:02:91:fe:
         dd:6c:22:c3:33:d2:fa:f5:c5:41:9d:24:32:17:08:94:e9:9d:
         25:8f:cb:d3:07:cf:91:79:0f:e0:f0:b7:e8:d7:b4:d8:d9:f5:
         1e:96:6b:e0:20:32:b0:aa:14:6c:55:6f:8a:55:06:fe:d6:81:
         7e:21:c2:8a:2a:e9:96:75:46:06:3e:e5:b3:47:50:97:ed:71:
         25:c0:78:37:78:95:8f:cf:dc:54:d1:d8:77:d3:2c:b9:9c:60:
         7a:40:80:61:10:9d:ad:75:b3:7f:f8:8d:7c:e2:34:67:ef:0b:
         41:a5:6c:89:ae:56:fa:02:c8:3d:7a:d9:4c:0e:25:33:1e:98:
         50:57:47:ca:a1:26:11:20:91:76:85:b6:5a:1f:6d:98:8d:07:
         09:f8:a8:43:05:1a:11:ab:91:bc:38:8a:49:11:02:72:ce:e9:
         d9:60:63:b8:46:46:dc:2b:32:6d:d3:a1:6b:3a:2b:85:f1:ac:
         9b:ab:7c:6a:98:c8:07:56:5a:87:ec:af:78:91:d5:09:c0:82:
         a9:e2:83:77:ce:d4:55:53:f4:8b:ed:9c:4a:b3:28:7a:35:9b:
         ba:a7:9b:f4:cc:ee:48:7d:78:d1:e2:46:85:94:cb:6d:5a:c7:
         00:dc:2d:95:75:19:b7:3a:71:98:10:76:9a:d5:96:b3:7e:e3:
         fa:91:8e:4d:6d:23:7b:7d:aa:56:0b:7f:4f:fc:78:aa:1c:d4:
         25:4d:23:4f:7c:0c:c3:f6:d0:0b:ff:0f:14:07:f4:f9:ef:97:
         77:af:4a:ff:ca:e0:6b:68:4e:7e:58:11:19:ce:3b:8f:93:4c:
         5b:66:98:fd:3e:cf:e6:1a:fb:dd:25:0c:2b:de:13:08:14:e1:
         f2:ff:61:c7:de:5c:f7:c4:d7:84:75:5d:a9:1c:fe:29:a6:d6:
         8c:bb:95:f0:18:92:2f:c6:e7:7b:6d:f5:ef:b9:75:de:7d:a9:
         64:f8:a4:42:db:54:e9:e0:0d:61:b9:e9:91:93:38:ee:6a:7d:
         0f:39:83:45:01:65:fe:84:f8:19:69:98:f6:a2:9a:bb:d4:38:
         a3:eb:41:4d:e9:3c:9d:0b:31:76:3d:9b:fb:2d:ec:61:12:0a:
         35:65:85:19:94:ee:61:ea:14:fc:e6:1a:20:23:12:44:35:b3:
         48:b0:07:b2:05:25:5a:ea:ea:fc:01:ff:6a:7b:d2:0f:fd:0b:
         00:f4:25:91:65:0a:9b:2f:2b:9d:0e:80:ab:4d:fb:4e:3d:ac:
         e2:1e:22:3f:a8:47:9c:25
-----BEGIN CERTIFICATE-----
MIIELzCCAhegAwIBAgIBDzANBgkqhkiG9w0BAQUFADBTMRMwEQYKCZImiZPyLGQB
GRYDb3JnMRYwFAYKCZImiZPyLGQBGRYGbXBsYW5lMRAwDgYDVQQLDAdSb290LUNB
MRIwEAYDVQQDDAlSb290LUNBLTEwHhcNMTUwMTIzMTU0NjEwWhcNMTcwMTIyMTU0
NjEwWjBhMRMwEQYKCZImiZPyLGQBGRYDb3JnMRYwFAYKCZImiZPyLGQBGRYGbXBs
YW5lMQ0wCwYDVQQKDARUZXN0MRAwDgYDVQQLDAdDbGllbnRzMREwDwYDVQQDDAhD
bGllbnQtMTCBnzANBgkqhkiG9w0BAQEFAAOBjQAwgYkCgYEAxIWEeBRhZ6qNj52S
hyF6m7L0p8HtiBaRSEdVRsZVQmSAleYCQ+u57VOMk/oEQ1TqdurNmGUT6RQpVE04
pxBDifUvBzaoOCLMAD3ZOQ6fhQJ6en9lZdOsbQnNSYeYyDuX11go9Wg33qSDU26v
HOP8kDg+st1S8295Zcu4f8fFqzMCAwEAAaOBgzCBgDAOBgNVHQ8BAf8EBAMCBaAw
CQYDVR0TBAIwADAdBgNVHQ4EFgQUOlODDOXU64DIIAGN74VCiHCVen8wHwYDVR0j
BBgwFoAUW3TbqSNrrykk7SETvjTblMskYvAwIwYDVR0RBBwwGoIYQ2xpZW50LTEu
VGVzdC5tcGxhbmUub3JnMA0GCSqGSIb3DQEBBQUAA4ICAQAMgn24rhE8z2FHX0vU
lh/3v0q8avn8TP9EjgFOoUTu37wCkf7dbCLDM9L69cVBnSQyFwiU6Z0lj8vTB8+R
eQ/g8Lfo17TY2fUelmvgIDKwqhRsVW+KVQb+1oF+IcKKKumWdUYGPuWzR1CX7XEl
wHg3eJWPz9xU0dh30yy5nGB6QIBhEJ2tdbN/+I184jRn7wtBpWyJrlb6Asg9etlM
DiUzHphQV0fKoSYRIJF2hbZaH22YjQcJ+KhDBRoRq5G8OIpJEQJyzunZYGO4Rkbc
KzJt06FrOiuF8aybq3xqmMgHVlqH7K94kdUJwIKp4oN3ztRVU/SL7ZxKsyh6NZu6
p5v0zO5IfXjR4kaFlMttWscA3C2VdRm3OnGYEHaa1ZazfuP6kY5NbSN7fapWC39P
/HiqHNQlTSNPfAzD9tAL/w8UB/T575d3r0r/yuBraE5+WBEZzjuPk0xbZpj9Ps/m
GvvdJQwr3hMIFOHy/2HH3lz3xNeEdV2pHP4pptaMu5XwGJIvxud7bfXvuXXefalk
+KRC21Tp4A1huemRkzjuan0POYNFAWX+hPgZaZj2opq71Dij60FN6TydCzF2PZv7
LexhEgo1ZYUZlO5h6hT85hogIxJENbNIsAeyBSVa6ur8Af9qe9IP/QsA9CWRZQqb
LyudDoCrTftOPaziHiI/qEecJQ==
-----END CERTIFICATE-----
