Certificate:
    Data:
        Version: 3 (0x2)
        Serial Number: 16 (0x10)
    Signature Algorithm: sha1WithRSAEncryption
        Issuer: DC=org, DC=mplane, OU=Root-CA, CN=Root-CA-1
        Validity
            Not Before: Jan 23 15:47:08 2015 GMT
            Not After : Jan 22 15:47:08 2017 GMT
        Subject: DC=org, DC=mplane, O=Test, OU=Components, CN=Component-1
        Subject Public Key Info:
            Public Key Algorithm: rsaEncryption
                Public-Key: (1024 bit)
                Modulus:
                    00:b7:3a:97:4f:b0:47:ae:fc:3c:e1:9b:27:14:57:
                    ad:4e:97:cf:96:e3:5d:a3:66:4e:56:40:99:fd:d1:
                    df:22:e4:73:b2:be:f6:fc:98:33:6a:74:4f:ac:a0:
                    37:6e:2a:f1:61:6d:35:71:a3:b3:da:59:1f:73:42:
                    11:b0:3d:de:8b:ae:c4:3c:76:59:01:6e:ee:46:19:
                    f2:4e:5e:ec:7b:c0:1c:f9:b9:cc:9b:8d:14:2b:88:
                    8b:66:14:a8:c7:90:f3:f6:71:c4:b0:62:f3:70:b2:
                    b2:2f:b2:37:e2:78:14:98:cc:22:1e:cf:50:5e:06:
                    62:9e:33:13:23:a3:32:da:a5
                Exponent: 65537 (0x10001)
        X509v3 extensions:
            X509v3 Key Usage: critical
                Digital Signature, Key Encipherment
            X509v3 Basic Constraints: 
                CA:FALSE
            X509v3 Subject Key Identifier: 
                9F:81:32:D7:A2:85:0F:47:09:77:45:15:11:03:30:15:10:0F:04:DD
            X509v3 Authority Key Identifier: 
                keyid:5B:74:DB:A9:23:6B:AF:29:24:ED:21:13:BE:34:DB:94:CB:24:62:F0

            X509v3 Subject Alternative Name: 
                DNS:Component-1.Test.mplane.org
    Signature Algorithm: sha1WithRSAEncryption
         1a:d1:a5:bb:5c:bd:06:79:c2:4d:bb:a0:72:34:16:83:88:14:
         96:b7:26:2f:00:fe:18:fd:80:3b:6d:7b:1c:2a:19:94:13:e9:
         f0:f9:75:f7:80:58:57:87:cd:65:a5:71:c8:e1:e3:a7:03:f0:
         9f:12:3d:7a:15:8c:fb:71:59:b2:6a:49:2c:cb:98:0e:50:bb:
         a5:18:60:1a:b8:40:ad:3b:17:49:39:88:8f:30:65:c7:9c:e8:
         58:b4:66:0c:ea:c0:9e:d0:02:a9:7b:87:e3:32:ad:1a:1b:ad:
         ca:07:7c:f3:51:fe:bc:82:55:79:b6:69:87:76:0a:61:11:6b:
         75:92:4e:c4:a6:10:e3:ea:41:7c:26:ba:00:d2:65:b7:06:91:
         dc:2b:37:00:68:1d:07:5a:c9:3f:7e:70:06:3b:7c:14:4c:7b:
         1f:36:bf:b8:04:42:d9:93:7f:3f:c2:0a:82:00:18:93:cf:36:
         ce:82:64:94:c5:9f:ef:57:ce:b1:02:71:78:35:73:a0:12:6b:
         89:66:a1:af:f3:cf:ac:db:f0:47:2c:68:ed:a4:64:20:fe:8c:
         b3:7c:e9:3a:94:68:e2:4d:3c:3c:de:eb:c1:48:d8:1d:3b:c1:
         a1:5e:5d:e4:80:3c:76:f9:40:68:e9:1a:92:f1:aa:9c:01:9f:
         5b:cd:12:24:a0:59:dc:ed:a9:9a:3f:44:58:50:b8:6e:0d:f7:
         17:d6:00:05:61:72:1c:29:e1:b9:76:4a:f1:dd:6b:3c:dd:3f:
         5c:3c:6c:41:a9:70:66:ce:b4:a7:21:97:e9:39:05:7f:95:fb:
         78:5d:6f:c0:93:0f:c2:ec:27:1b:99:4f:85:98:5f:f1:3f:09:
         b8:05:85:ce:0c:8b:16:cf:1d:39:d9:48:6d:ea:e6:3f:22:59:
         5e:e2:19:54:81:6c:f5:b6:ea:1b:78:c2:a4:27:0a:f0:9a:99:
         14:41:9c:f7:a1:e4:71:f4:59:10:31:ba:b1:4f:4f:b9:9e:cb:
         fe:a2:2c:84:e0:bd:56:f9:11:c8:d9:b3:eb:84:a6:bd:7c:c3:
         70:89:ea:14:59:36:03:44:52:dc:94:8a:19:7b:80:b2:63:99:
         0d:fc:62:e7:c7:91:73:b3:72:bc:2b:0b:26:8d:57:e3:64:32:
         2a:3e:fb:89:bb:e9:38:57:9b:01:75:ec:7c:74:de:c1:0a:93:
         04:36:b7:34:a2:b9:56:1a:91:22:ac:cf:9a:68:cc:42:dc:e6:
         93:9b:ba:8a:a3:1c:47:f7:3d:2e:3d:c1:d8:e6:e3:8c:f5:f8:
         11:ab:67:c7:c1:73:7c:1c:e2:65:f1:7b:e7:97:07:f2:30:fc:
         30:70:33:47:7c:19:38:cb
-----BEGIN CERTIFICATE-----
MIIEODCCAiCgAwIBAgIBEDANBgkqhkiG9w0BAQUFADBTMRMwEQYKCZImiZPyLGQB
GRYDb3JnMRYwFAYKCZImiZPyLGQBGRYGbXBsYW5lMRAwDgYDVQQLDAdSb290LUNB
MRIwEAYDVQQDDAlSb290LUNBLTEwHhcNMTUwMTIzMTU0NzA4WhcNMTcwMTIyMTU0
NzA4WjBnMRMwEQYKCZImiZPyLGQBGRYDb3JnMRYwFAYKCZImiZPyLGQBGRYGbXBs
YW5lMQ0wCwYDVQQKDARUZXN0MRMwEQYDVQQLDApDb21wb25lbnRzMRQwEgYDVQQD
DAtDb21wb25lbnQtMTCBnzANBgkqhkiG9w0BAQEFAAOBjQAwgYkCgYEAtzqXT7BH
rvw84ZsnFFetTpfPluNdo2ZOVkCZ/dHfIuRzsr72/JgzanRPrKA3birxYW01caOz
2lkfc0IRsD3ei67EPHZZAW7uRhnyTl7se8Ac+bnMm40UK4iLZhSox5Dz9nHEsGLz
cLKyL7I34ngUmMwiHs9QXgZinjMTI6My2qUCAwEAAaOBhjCBgzAOBgNVHQ8BAf8E
BAMCBaAwCQYDVR0TBAIwADAdBgNVHQ4EFgQUn4Ey16KFD0cJd0UVEQMwFRAPBN0w
HwYDVR0jBBgwFoAUW3TbqSNrrykk7SETvjTblMskYvAwJgYDVR0RBB8wHYIbQ29t
cG9uZW50LTEuVGVzdC5tcGxhbmUub3JnMA0GCSqGSIb3DQEBBQUAA4ICAQAa0aW7
XL0GecJNu6ByNBaDiBSWtyYvAP4Y/YA7bXscKhmUE+nw+XX3gFhXh81lpXHI4eOn
A/CfEj16FYz7cVmyakksy5gOULulGGAauECtOxdJOYiPMGXHnOhYtGYM6sCe0AKp
e4fjMq0aG63KB3zzUf68glV5tmmHdgphEWt1kk7EphDj6kF8JroA0mW3BpHcKzcA
aB0HWsk/fnAGO3wUTHsfNr+4BELZk38/wgqCABiTzzbOgmSUxZ/vV86xAnF4NXOg
EmuJZqGv88+s2/BHLGjtpGQg/oyzfOk6lGjiTTw83uvBSNgdO8GhXl3kgDx2+UBo
6RqS8aqcAZ9bzRIkoFnc7amaP0RYULhuDfcX1gAFYXIcKeG5dkrx3Ws83T9cPGxB
qXBmzrSnIZfpOQV/lft4XW/Akw/C7CcbmU+FmF/xPwm4BYXODIsWzx052Uht6uY/
Ille4hlUgWz1tuobeMKkJwrwmpkUQZz3oeRx9FkQMbqxT0+5nsv+oiyE4L1W+RHI
2bPrhKa9fMNwieoUWTYDRFLclIoZe4CyY5kN/GLnx5Fzs3K8KwsmjVfjZDIqPvuJ
u+k4V5sBdex8dN7BCpMENrc0orlWGpEirM+aaMxC3OaTm7qKoxxH9z0uPcHY5uOM
9fgRq2fHwXN8HOJl8XvnlwfyMPwwcDNHfBk4yw==
-----END CERTIFICATE-----
